; Function Attrs: mustprogress nounwind uwtable
define hidden void @_ZN15G1CollectedHeap10clear_edenEv(ptr noundef nonnull align 8 dereferenceable(1488) %0) local_unnamed_addr #0 align 2 {
  %2 = getelementptr inbounds i8, ptr %0, i64 984
  store i32 0, ptr %2, align 8
  %3 = getelementptr inbounds i8, ptr %0, i64 992
  store volatile i64 0, ptr %3, align 8
  %4 = getelementptr inbounds i8, ptr %0, i64 1000
  tail call void @_ZN16G1RegionsOnNodes5clearEv(ptr noundef nonnull align 8 dereferenceable(16) %4) #23
  ret void
}